-----BEGIN RSA PRIVATE KEY-----
MIICXQIBAAKBgQDFSbbQ4bwbzMHBejiXRM4YEIWkMMgsnrwpRzGgs06ngfo4K1BX
EOfvZEjPZMtc6OCNTAjigSmywL4OybGWdZkGWOX74/NWvKPBsryECPO1ya1/Yki/
+IviKjRtRK1/3FPS/hP8xIPUu5+MkjWekpQH6/FiNGhVkLYYMQI5T4cy2wIDAQAB
AoGBAKVVUznWExiRDccgsBBE/xo3rmec4gRSuok1Oqfb3IyQZqtv0RJF/rkmJ8Z2
R98C4jxHfiKj79f3os8tw/+9aZDpW46hKbDt5IDMNYl9s/hvBPZy8ypdxTKIjHx/
Q6iaIuui1UGxn5qtPA3Q08PqlWHgBjNrIRYbtRY8t5YP2dxRAkEA5t21ywCqsde8
xRVeYy5dCzZVQ1W8HIUjUm50G8IksC7+hQizzWXD66683x21B5J2D48y4xoB1Xs1
n0ZOlBpL5wJBANrELKTpYJR7Fsu/ARbHSPmxZOhlm62j+8ZRNNoNR9kmSQpIEsep
K/ufIjdxuE9r0sZfijaYXlFcOzAmH1TL4u0CQHb/7zXtaQ70ihv4cMek3VbrMbXc
mnME+XkC8BxizTB3eMAwBSYpf3ybfEVxdZ+qkephQLSo8isNME2iGtziVR8CQDRu
TfDcShxr/8OnLICkFJZbcL7OE2ijY6VdMxiLlEu0BE9lhLK7leIBerblF3JZejO3
FC4PiJNhUoIwsNOm5eUCQQCVLW3yGy6wyGY11MqQtp8hQbRt6kCCGGdAc/l+U/mq
2+Gxq10D53Tgvh6kdCuWOidScI0TFKoB1GKKHjb/vFpg
-----END RSA PRIVATE KEY-----
Certificate:
    Data:
        Version: 3 (0x2)
        Serial Number: 1 (0x1)
    Signature Algorithm: sha1WithRSAEncryption
        Issuer: C=KR, CN=gilgil
        Validity
            Not Before: Mar  1 00:00:00 2014 GMT
            Not After : Feb 27 00:00:00 2024 GMT
        Subject: C=KR, CN=default
        Subject Public Key Info:
            Public Key Algorithm: rsaEncryption
                Public-Key: (1024 bit)
                Modulus:
                    00:c5:49:b6:d0:e1:bc:1b:cc:c1:c1:7a:38:97:44:
                    ce:18:10:85:a4:30:c8:2c:9e:bc:29:47:31:a0:b3:
                    4e:a7:81:fa:38:2b:50:57:10:e7:ef:64:48:cf:64:
                    cb:5c:e8:e0:8d:4c:08:e2:81:29:b2:c0:be:0e:c9:
                    b1:96:75:99:06:58:e5:fb:e3:f3:56:bc:a3:c1:b2:
                    bc:84:08:f3:b5:c9:ad:7f:62:48:bf:f8:8b:e2:2a:
                    34:6d:44:ad:7f:dc:53:d2:fe:13:fc:c4:83:d4:bb:
                    9f:8c:92:35:9e:92:94:07:eb:f1:62:34:68:55:90:
                    b6:18:31:02:39:4f:87:32:db
                Exponent: 65537 (0x10001)
        X509v3 extensions:
            X509v3 Basic Constraints: 
                CA:FALSE
            Netscape Comment: 
                OpenSSL Generated Certificate
            X509v3 Subject Key Identifier: 
                95:FB:88:B1:E8:4D:27:22:7C:91:C1:50:CC:04:1E:18:9E:49:57:20
            X509v3 Authority Key Identifier: 
                DirName:/C=KR/CN=gilgil
                serial:BC:FE:EF:E9:4A:BC:63:F0

    Signature Algorithm: sha1WithRSAEncryption
         46:59:61:9c:03:b2:51:41:61:13:72:25:0a:0d:3a:d0:ac:90:
         dc:ab:c6:63:7c:09:fc:23:f9:fb:a1:f9:5f:b8:81:58:59:ad:
         17:cb:69:20:af:dc:fe:23:6e:01:f7:f6:b1:a5:22:02:1a:e5:
         e6:f6:08:63:3f:b5:a9:a8:ba:dd:2b:e9:f5:40:48:dd:dd:cf:
         ba:55:e4:7c:0f:32:fe:78:3f:83:ba:73:32:a8:d2:d1:a9:72:
         6e:2a:e3:d6:6b:31:d8:0b:3f:6a:a7:4c:63:a4:4f:d2:65:ba:
         3b:3e:66:84:01:8f:25:fa:fa:72:d7:f1:cd:e0:85:ef:f4:98:
         95:e7
-----BEGIN CERTIFICATE-----
MIICTTCCAbagAwIBAgIBATANBgkqhkiG9w0BAQUFADAeMQswCQYDVQQGEwJLUjEP
MA0GA1UEAwwGZ2lsZ2lsMCIYDzIwMTQwMzAxMDAwMDAwWhgPMjAyNDAyMjcwMDAw
MDBaMB8xCzAJBgNVBAYTAktSMRAwDgYDVQQDDAdkZWZhdWx0MIGfMA0GCSqGSIb3
DQEBAQUAA4GNADCBiQKBgQDFSbbQ4bwbzMHBejiXRM4YEIWkMMgsnrwpRzGgs06n
gfo4K1BXEOfvZEjPZMtc6OCNTAjigSmywL4OybGWdZkGWOX74/NWvKPBsryECPO1
ya1/Yki/+IviKjRtRK1/3FPS/hP8xIPUu5+MkjWekpQH6/FiNGhVkLYYMQI5T4cy
2wIDAQABo4GVMIGSMAkGA1UdEwQCMAAwLAYJYIZIAYb4QgENBB8WHU9wZW5TU0wg
R2VuZXJhdGVkIENlcnRpZmljYXRlMB0GA1UdDgQWBBSV+4ix6E0nInyRwVDMBB4Y
nklXIDA4BgNVHSMEMTAvoSKkIDAeMQswCQYDVQQGEwJLUjEPMA0GA1UEAwwGZ2ls
Z2lsggkAvP7v6Uq8Y/AwDQYJKoZIhvcNAQEFBQADgYEARllhnAOyUUFhE3IlCg06
0KyQ3KvGY3wJ/CP5+6H5X7iBWFmtF8tpIK/c/iNuAff2saUiAhrl5vYIYz+1qai6
3Svp9UBI3d3PulXkfA8y/ng/g7pzMqjS0alybirj1msx2As/aqdMY6RP0mW6Oz5m
hAGPJfr6ctfxzeCF7/SYlec=
-----END CERTIFICATE-----
